target datalayout = "e-m:e-p270:32:32-p271:32:32-p272:64:64-i64:64-i128:128-f80:128-n8:16:32:64-S128"
target triple = "x86_64-pc-linux-gnu"

; Function Attrs: mustprogress nounwind sspstrong uwtable
define void @_ZN3tbb6detail2r114dynamic_unlinkEPv(ptr noundef %0) #0 {
  %2 = alloca ptr, align 8
  store ptr %0, ptr %2, align 8, !tbaa !8
  %3 = icmp ne ptr @dlclose, null
  br i1 %3, label %5, label %4

4:                                                ; preds = %1
  br label %11

5:                                                ; preds = %1
  %6 = load ptr, ptr %2, align 8, !tbaa !8
  %7 = icmp ne ptr %6, null
  br i1 %7, label %8, label %11

8:                                                ; preds = %5
  %9 = load ptr, ptr %2, align 8, !tbaa !8
  %10 = call i32 @dlclose(ptr noundef %9) #7
  br label %11

11:                                               ; preds = %4, %8, %5
  ret void
}