; Function Attrs: mustprogress nounwind sspstrong uwtable
define void @_ZN3tbb6detail2r114dynamic_unlinkEPv(ptr noundef %0) local_unnamed_addr #1 {
  %2 = icmp ne ptr @dlclose, null
  %3 = icmp ne ptr %0, null
  %or.cond = and i1 %2, %3
  br i1 %or.cond, label %4, label %6

4:                                                ; preds = %1
  %5 = tail call i32 @dlclose(ptr noundef nonnull %0) #7
  br label %6

6:                                                ; preds = %1, %4
  ret void
}